; Function Attrs: mustprogress uwtable
define hidden void @_ZNK7datalog3bmc19display_certificateERSo(ptr noundef nonnull readonly align 8 captures(none) dereferenceable(368) %0, ptr noundef nonnull align 8 dereferenceable(8) %1) unnamed_addr #3 align 2 personality ptr @__gxx_personality_v0 {
  %3 = alloca %struct.mk_pp, align 8
  call void @llvm.lifetime.start.p0(i64 48, ptr nonnull %3) #23
  %4 = getelementptr inbounds nuw i8, ptr %0, i64 336
  %5 = load ptr, ptr %4, align 8, !tbaa !222
  %6 = getelementptr inbounds nuw i8, ptr %0, i64 56
  %7 = load ptr, ptr %6, align 8, !tbaa !217
  call void @_ZN11mk_ismt2_ppC2EP3astR11ast_managerjjPKc(ptr noundef nonnull align 8 dereferenceable(48) %3, ptr noundef %5, ptr noundef nonnull align 8 dereferenceable(976) %7, i32 noundef 0, i32 noundef 0, ptr noundef null)
  %8 = invoke noundef nonnull align 8 dereferenceable(8) ptr @_ZlsRSoRK11mk_ismt2_pp(ptr noundef nonnull align 8 dereferenceable(8) %1, ptr noundef nonnull align 8 dereferenceable(48) %3)
          to label %9 unwind label %12

9:                                                ; preds = %2
  %10 = invoke noundef nonnull align 8 dereferenceable(8) ptr @_ZSt16__ostream_insertIcSt11char_traitsIcEERSt13basic_ostreamIT_T0_ES6_PKS3_l(ptr noundef nonnull align 8 dereferenceable(8) %8, ptr noundef nonnull @.str.2, i64 noundef 1)
          to label %_ZStlsISt11char_traitsIcEERSt13basic_ostreamIcT_ES5_PKc.exit unwind label %12

_ZStlsISt11char_traitsIcEERSt13basic_ostreamIcT_ES5_PKc.exit: ; preds = %9
  %11 = getelementptr inbounds nuw i8, ptr %3, i64 16
  call void @_ZN10params_refD1Ev(ptr noundef nonnull align 8 dereferenceable(8) %11) #23
  call void @llvm.lifetime.end.p0(i64 48, ptr nonnull %3) #23
  ret void

12:                                               ; preds = %9, %2
  %13 = landingpad { ptr, i32 }
          cleanup
  %14 = getelementptr inbounds nuw i8, ptr %3, i64 16
  call void @_ZN10params_refD1Ev(ptr noundef nonnull align 8 dereferenceable(8) %14) #23
  call void @llvm.lifetime.end.p0(i64 48, ptr nonnull %3) #23
  resume { ptr, i32 } %13
}